target datalayout = "e-m:e-p270:32:32-p271:32:32-p272:64:64-i64:64-i128:128-f80:128-n8:16:32:64-S128"
target triple = "x86_64-pc-linux-gnu"

%union.pthread_mutex_t = type { %struct.__pthread_mutex_s }
%struct.__pthread_mutex_s = type { i32, i32, i32, i32, i32, i16, i16, %struct.__pthread_internal_list }
%struct.__pthread_internal_list = type { ptr, ptr }
%struct.wolfSSL_RefWithMutex = type { %union.pthread_mutex_t, i32 }
%struct.WOLFSSL_CTX = type <{ ptr, %struct.wolfSSL_RefWithMutex, i32, [4 x i8], %struct.WOLFSSL_BUFFER_INFO, %struct.WOLFSSL_BUFFER_INFO, ptr, ptr, i32, [4 x i8], ptr, i8, i8, [2 x i8], i32, i32, [4 x i8], ptr, ptr, ptr, i8, i16, i8, i8, i8, i16, i16, i16, i16, [2 x i8], i64, ptr, ptr, ptr, ptr, i32, i32, i16, [2 x i8], i32, [10 x i16], i8, [3 x i8], ptr, ptr, i32, [4 x i8], ptr, i8, [7 x i8] }>
%struct.WOLFSSL_BUFFER_INFO = type { ptr, i32 }
%struct.WOLFSSL = type <{ ptr, ptr, ptr, ptr, [48 x i8], [48 x i8], ptr, ptr, ptr, ptr, ptr, ptr, ptr, ptr, ptr, ptr, ptr, ptr, ptr, i32, [4 x i8], %struct.WOLFSSL_CIPHER, ptr, %struct.Ciphers, %struct.Ciphers, [8 x i8], %struct.Buffers, ptr, ptr, %struct.WOLFSSL_ALERT_HISTORY, %struct.WOLFSSL_ALERT, i32, i32, i32, i32, i32, i32, i32, i16, [2 x i8], i32, i8, %struct.RecordLayerHeader, %struct.MsgsReceived, %struct.ProtocolVersion, %struct.ProtocolVersion, %struct.CipherSpecs, [2 x i8], %struct.Keys, %struct.Options, ptr, i8, i8, i16, [10 x i16], i8, i8, i16, i16, [38 x i8], i32, i32, [4 x i8], ptr, i8, i8, [6 x i8], ptr, ptr, i16, i8, i8, i32, i8, [3 x i8], i32, %struct.OneTimeAuth, ptr }>
%struct.WOLFSSL_CIPHER = type { i8, i8, ptr }
%struct.Ciphers = type { ptr, ptr, ptr, ptr, i8, i8 }
%struct.Buffers = type { %struct.bufferStatic, %struct.bufferStatic, %struct.WOLFSSL_BUFFER_INFO, %struct.WOLFSSL_BUFFER_INFO, %struct.WOLFSSL_BUFFER_INFO, %struct.WOLFSSL_BUFFER_INFO, i32, i32, i8, i8, i8, i8, %struct.WOLFSSL_BUFFER_INFO, %struct.WOLFSSL_BUFFER_INFO, %struct.WOLFSSL_BUFFER_INFO, %struct.WOLFSSL_BUFFER_INFO, ptr, ptr, ptr, i8, i8, i32, i32, ptr, i32, [1 x ptr] }
%struct.bufferStatic = type { [5 x i8], ptr, i32, i32, i32, i8, i8 }
%struct.WOLFSSL_ALERT_HISTORY = type { %struct.WOLFSSL_ALERT, %struct.WOLFSSL_ALERT }
%struct.WOLFSSL_ALERT = type { i32, i32 }
%struct.RecordLayerHeader = type { i8, i8, i8, [2 x i8] }
%struct.MsgsReceived = type { i32 }
%struct.ProtocolVersion = type { i8, i8 }
%struct.CipherSpecs = type { i16, i16, i16, i16, i8, i8, i8, i8, i8, i8, i8, i8 }
%struct.Keys = type { [64 x i8], [64 x i8], [32 x i8], [32 x i8], [16 x i8], [16 x i8], [8 x i8], [12 x i8], [12 x i8], i32, i32, i32, i32, i32, i32, i8, i8, i8, i8 }
%struct.Options = type { i64, i64, i8, i8, i8, i8, i8, i8, i8, i8, i8, i8, i8, i8, i8, i8, i8, i8, i8, i8, i8, i8, i8, i16, i16, i16, i16, i16, i8 }
%struct.OneTimeAuth = type { ptr, i8 }
%struct.StaticBuffer = type { ptr, i32, i32 }

; Function Attrs: nounwind uwtable
define internal void @static_buffer_free(ptr noundef %0, ptr noundef %1, i32 noundef %2) #0 {
  %4 = alloca ptr, align 8
  %5 = alloca ptr, align 8
  %6 = alloca i32, align 4
  %7 = alloca ptr, align 8
  store ptr %0, ptr %4, align 8, !tbaa !3
  store ptr %1, ptr %5, align 8, !tbaa !3
  store i32 %2, ptr %6, align 4, !tbaa !7
  %8 = load ptr, ptr %4, align 8, !tbaa !3
  %9 = getelementptr inbounds nuw %struct.StaticBuffer, ptr %8, i32 0, i32 2
  %10 = load i32, ptr %9, align 4, !tbaa !232
  %11 = icmp ne i32 %10, 0
  br i1 %11, label %12, label %23

12:                                               ; preds = %3
  br label %13

13:                                               ; preds = %12
  call void @llvm.lifetime.start.p0(i64 8, ptr %7) #9
  %14 = load ptr, ptr %4, align 8, !tbaa !3
  %15 = getelementptr inbounds nuw %struct.StaticBuffer, ptr %14, i32 0, i32 0
  %16 = load ptr, ptr %15, align 8, !tbaa !225
  store ptr %16, ptr %7, align 8, !tbaa !3
  %17 = load ptr, ptr %7, align 8, !tbaa !3
  %18 = icmp ne ptr %17, null
  br i1 %18, label %19, label %21

19:                                               ; preds = %13
  %20 = load ptr, ptr %7, align 8, !tbaa !3
  call void @wolfSSL_Free(ptr noundef %20)
  br label %21

21:                                               ; preds = %19, %13
  call void @llvm.lifetime.end.p0(i64 8, ptr %7) #9
  br label %22

22:                                               ; preds = %21
  br label %23

23:                                               ; preds = %22, %3
  ret void
}

; Function Attrs: nounwind uwtable
define i32 @wolfSSL_CTX_SetTmpDH_buffer(ptr noundef %0, ptr noundef %1, i64 noundef %2, i32 noundef %3) #0 {
  %5 = alloca ptr, align 8
  %6 = alloca ptr, align 8
  %7 = alloca i64, align 8
  %8 = alloca i32, align 4
  store ptr %0, ptr %5, align 8, !tbaa !24
  store ptr %1, ptr %6, align 8, !tbaa !21
  store i64 %2, ptr %7, align 8, !tbaa !22
  store i32 %3, ptr %8, align 4, !tbaa !7
  %9 = load ptr, ptr %5, align 8, !tbaa !24
  %10 = load ptr, ptr %6, align 8, !tbaa !21
  %11 = load i64, ptr %7, align 8, !tbaa !22
  %12 = load i32, ptr %8, align 4, !tbaa !7
  %13 = call i32 @ws_ctx_ssl_set_tmp_dh(ptr noundef %9, ptr noundef null, ptr noundef %10, i64 noundef %11, i32 noundef %12)
  ret i32 %13
}

; Function Attrs: nounwind uwtable
define i32 @wolfSSL_SetTmpDH_buffer(ptr noundef %0, ptr noundef %1, i64 noundef %2, i32 noundef %3) #0 {
  %5 = alloca ptr, align 8
  %6 = alloca ptr, align 8
  %7 = alloca i64, align 8
  %8 = alloca i32, align 4
  store ptr %0, ptr %5, align 8, !tbaa !61
  store ptr %1, ptr %6, align 8, !tbaa !21
  store i64 %2, ptr %7, align 8, !tbaa !22
  store i32 %3, ptr %8, align 4, !tbaa !7
  %9 = load ptr, ptr %5, align 8, !tbaa !61
  %10 = load ptr, ptr %6, align 8, !tbaa !21
  %11 = load i64, ptr %7, align 8, !tbaa !22
  %12 = load i32, ptr %8, align 4, !tbaa !7
  %13 = call i32 @ws_ctx_ssl_set_tmp_dh(ptr noundef null, ptr noundef %9, ptr noundef %10, i64 noundef %11, i32 noundef %12)
  ret i32 %13
}

; Function Attrs: nounwind uwtable
define internal void @static_buffer_init(ptr noundef %0, ptr noundef %1, i32 noundef %2) #0 {
  %4 = alloca ptr, align 8
  %5 = alloca ptr, align 8
  %6 = alloca i32, align 4
  store ptr %0, ptr %4, align 8, !tbaa !3
  store ptr %1, ptr %5, align 8, !tbaa !21
  store i32 %2, ptr %6, align 4, !tbaa !7
  %7 = load ptr, ptr %5, align 8, !tbaa !21
  %8 = load ptr, ptr %4, align 8, !tbaa !3
  %9 = getelementptr inbounds nuw %struct.StaticBuffer, ptr %8, i32 0, i32 0
  store ptr %7, ptr %9, align 8, !tbaa !225
  %10 = load i32, ptr %6, align 4, !tbaa !7
  %11 = load ptr, ptr %4, align 8, !tbaa !3
  %12 = getelementptr inbounds nuw %struct.StaticBuffer, ptr %11, i32 0, i32 1
  store i32 %10, ptr %12, align 8, !tbaa !231
  %13 = load ptr, ptr %4, align 8, !tbaa !3
  %14 = getelementptr inbounds nuw %struct.StaticBuffer, ptr %13, i32 0, i32 2
  store i32 0, ptr %14, align 4, !tbaa !232
  ret void
}

; Function Attrs: nounwind uwtable
define internal i32 @ws_ctx_ssl_set_tmp_dh_file(ptr noundef %0, ptr noundef %1, ptr noundef %2, i32 noundef %3) #0 {
  %5 = alloca ptr, align 8
  %6 = alloca ptr, align 8
  %7 = alloca ptr, align 8
  %8 = alloca i32, align 4
  %9 = alloca i32, align 4
  %10 = alloca i32, align 4
  %11 = alloca [1024 x i8], align 16
  %12 = alloca %struct.StaticBuffer, align 8
  %13 = alloca i64, align 8
  %14 = alloca ptr, align 8
  store ptr %0, ptr %5, align 8, !tbaa !24
  store ptr %1, ptr %6, align 8, !tbaa !61
  store ptr %2, ptr %7, align 8, !tbaa !21
  store i32 %3, ptr %8, align 4, !tbaa !7
  call void @llvm.lifetime.start.p0(i64 4, ptr %9) #9
  store i32 1, ptr %9, align 4, !tbaa !7
  call void @llvm.lifetime.start.p0(i64 4, ptr %10) #9
  call void @llvm.lifetime.start.p0(i64 1024, ptr %11) #9
  call void @llvm.lifetime.start.p0(i64 16, ptr %12) #9
  call void @llvm.lifetime.start.p0(i64 8, ptr %13) #9
  store i64 0, ptr %13, align 8, !tbaa !22
  call void @llvm.lifetime.start.p0(i64 8, ptr %14) #9
  %15 = load ptr, ptr %5, align 8, !tbaa !24
  %16 = icmp ne ptr %15, null
  br i1 %16, label %17, label %21

17:                                               ; preds = %4
  %18 = load ptr, ptr %5, align 8, !tbaa !24
  %19 = getelementptr inbounds nuw %struct.WOLFSSL_CTX, ptr %18, i32 0, i32 19
  %20 = load ptr, ptr %19, align 8, !tbaa !136
  br label %31

21:                                               ; preds = %4
  %22 = load ptr, ptr %6, align 8, !tbaa !61
  %23 = icmp ne ptr %22, null
  br i1 %23, label %24, label %28

24:                                               ; preds = %21
  %25 = load ptr, ptr %6, align 8, !tbaa !61
  %26 = getelementptr inbounds nuw %struct.WOLFSSL, ptr %25, i32 0, i32 12
  %27 = load ptr, ptr %26, align 16, !tbaa !186
  br label %29

28:                                               ; preds = %21
  br label %29

29:                                               ; preds = %28, %24
  %30 = phi ptr [ %27, %24 ], [ null, %28 ]
  br label %31

31:                                               ; preds = %29, %17
  %32 = phi ptr [ %20, %17 ], [ %30, %29 ]
  store ptr %32, ptr %14, align 8, !tbaa !3
  %33 = getelementptr inbounds [1024 x i8], ptr %11, i64 0, i64 0
  call void @static_buffer_init(ptr noundef %12, ptr noundef %33, i32 noundef 1024)
  %34 = load ptr, ptr %5, align 8, !tbaa !24
  %35 = icmp eq ptr %34, null
  br i1 %35, label %36, label %39

36:                                               ; preds = %31
  %37 = load ptr, ptr %6, align 8, !tbaa !61
  %38 = icmp eq ptr %37, null
  br i1 %38, label %42, label %39

39:                                               ; preds = %36, %31
  %40 = load ptr, ptr %7, align 8, !tbaa !21
  %41 = icmp eq ptr %40, null
  br i1 %41, label %42, label %43

42:                                               ; preds = %39, %36
  store i32 -173, ptr %9, align 4, !tbaa !7
  br label %43

43:                                               ; preds = %42, %39
  %44 = load i32, ptr %9, align 4, !tbaa !7
  %45 = icmp eq i32 %44, 1
  br i1 %45, label %46, label %55

46:                                               ; preds = %43
  %47 = load ptr, ptr %7, align 8, !tbaa !21
  %48 = load ptr, ptr %14, align 8, !tbaa !3
  %49 = call i32 @wolfssl_read_file_static(ptr noundef %47, ptr noundef %12, ptr noundef %48, i32 noundef 4, ptr noundef %13)
  store i32 %49, ptr %10, align 4, !tbaa !7
  %50 = load i32, ptr %10, align 4, !tbaa !7
  %51 = icmp ne i32 %50, 0
  br i1 %51, label %52, label %54

52:                                               ; preds = %46
  %53 = load i32, ptr %10, align 4, !tbaa !7
  store i32 %53, ptr %9, align 4, !tbaa !7
  br label %54

54:                                               ; preds = %52, %46
  br label %55

55:                                               ; preds = %54, %43
  %56 = load i32, ptr %9, align 4, !tbaa !7
  %57 = icmp eq i32 %56, 1
  br i1 %57, label %58, label %76

58:                                               ; preds = %55
  %59 = load ptr, ptr %6, align 8, !tbaa !61
  %60 = icmp ne ptr %59, null
  br i1 %60, label %61, label %68

61:                                               ; preds = %58
  %62 = load ptr, ptr %6, align 8, !tbaa !61
  %63 = getelementptr inbounds nuw %struct.StaticBuffer, ptr %12, i32 0, i32 0
  %64 = load ptr, ptr %63, align 8, !tbaa !225
  %65 = load i64, ptr %13, align 8, !tbaa !22
  %66 = load i32, ptr %8, align 4, !tbaa !7
  %67 = call i32 @wolfSSL_SetTmpDH_buffer(ptr noundef %62, ptr noundef %64, i64 noundef %65, i32 noundef %66)
  store i32 %67, ptr %9, align 4, !tbaa !7
  br label %75

68:                                               ; preds = %58
  %69 = load ptr, ptr %5, align 8, !tbaa !24
  %70 = getelementptr inbounds nuw %struct.StaticBuffer, ptr %12, i32 0, i32 0
  %71 = load ptr, ptr %70, align 8, !tbaa !225
  %72 = load i64, ptr %13, align 8, !tbaa !22
  %73 = load i32, ptr %8, align 4, !tbaa !7
  %74 = call i32 @wolfSSL_CTX_SetTmpDH_buffer(ptr noundef %69, ptr noundef %71, i64 noundef %72, i32 noundef %73)
  store i32 %74, ptr %9, align 4, !tbaa !7
  br label %75

75:                                               ; preds = %68, %61
  br label %76

76:                                               ; preds = %75, %55
  %77 = load ptr, ptr %14, align 8, !tbaa !3
  call void @static_buffer_free(ptr noundef %12, ptr noundef %77, i32 noundef 4)
  %78 = load i32, ptr %9, align 4, !tbaa !7
  call void @llvm.lifetime.end.p0(i64 8, ptr %14) #9
  call void @llvm.lifetime.end.p0(i64 8, ptr %13) #9
  call void @llvm.lifetime.end.p0(i64 16, ptr %12) #9
  call void @llvm.lifetime.end.p0(i64 1024, ptr %11) #9
  call void @llvm.lifetime.end.p0(i64 4, ptr %10) #9
  call void @llvm.lifetime.end.p0(i64 4, ptr %9) #9
  ret i32 %78
}