; Function Attrs: nounwind uwtable
define internal fastcc i32 @ws_ctx_ssl_set_tmp_dh_file(ptr noundef captures(address_is_null) %0, ptr noundef %1, ptr noundef captures(address_is_null) %2, i32 noundef %3) unnamed_addr #0 {
  %5 = alloca [1024 x i8], align 16
  %6 = alloca %struct.StaticBuffer, align 8
  %7 = alloca i64, align 8
  call void @llvm.lifetime.start.p0(i64 1024, ptr nonnull %5) #22
  call void @llvm.lifetime.start.p0(i64 16, ptr nonnull %6) #22
  call void @llvm.lifetime.start.p0(i64 8, ptr nonnull %7) #22
  store ptr %5, ptr %6, align 8, !tbaa !214
  %8 = getelementptr inbounds nuw i8, ptr %6, i64 8
  store i32 1024, ptr %8, align 8, !tbaa !216
  %9 = getelementptr inbounds nuw i8, ptr %6, i64 12
  store i32 0, ptr %9, align 4, !tbaa !217
  %10 = icmp ne ptr %0, null
  %11 = icmp ne ptr %1, null
  %or.cond.not30 = or i1 %10, %11
  %12 = icmp ne ptr %2, null
  %or.cond3.not = and i1 %or.cond.not30, %12
  br i1 %or.cond3.not, label %13, label %.thread36

13:                                               ; preds = %4
  %14 = call fastcc i32 @wolfssl_read_file_static(ptr noundef nonnull %2, ptr noundef %6, ptr noundef %7)
  %.not31 = icmp eq i32 %14, 0
  br i1 %.not31, label %.thread, label %..thread36_crit_edge

..thread36_crit_edge:                             ; preds = %13
  %.val.pre = load ptr, ptr %6, align 8
  br label %.thread36

.thread:                                          ; preds = %13
  %.not32 = icmp eq ptr %1, null
  %15 = load ptr, ptr %6, align 8, !tbaa !214
  %16 = load i64, ptr %7, align 8, !tbaa !27
  br i1 %.not32, label %19, label %17

17:                                               ; preds = %.thread
  %18 = call fastcc i32 @ws_ctx_ssl_set_tmp_dh(ptr noundef null, ptr noundef nonnull %1, ptr noundef %15, i64 noundef %16, i32 noundef %3)
  br label %.thread36

19:                                               ; preds = %.thread
  %20 = call fastcc i32 @ws_ctx_ssl_set_tmp_dh(ptr noundef %0, ptr noundef null, ptr noundef %15, i64 noundef %16, i32 noundef %3)
  br label %.thread36

.thread36:                                        ; preds = %..thread36_crit_edge, %4, %17, %19
  %.val = phi ptr [ %15, %17 ], [ %15, %19 ], [ %.val.pre, %..thread36_crit_edge ], [ %5, %4 ]
  %.2 = phi i32 [ %18, %17 ], [ %20, %19 ], [ %14, %..thread36_crit_edge ], [ -173, %4 ]
  %.val34 = load i32, ptr %9, align 4, !tbaa !217
  %.not.i = icmp eq i32 %.val34, 0
  %.not4.i = icmp eq ptr %.val, null
  %or.cond.i = select i1 %.not.i, i1 true, i1 %.not4.i
  br i1 %or.cond.i, label %static_buffer_free.exit, label %21

21:                                               ; preds = %.thread36
  call void @wolfSSL_Free(ptr noundef nonnull %.val) #22
  br label %static_buffer_free.exit

static_buffer_free.exit:                          ; preds = %.thread36, %21
  call void @llvm.lifetime.end.p0(i64 8, ptr nonnull %7) #22
  call void @llvm.lifetime.end.p0(i64 16, ptr nonnull %6) #22
  call void @llvm.lifetime.end.p0(i64 1024, ptr nonnull %5) #22
  ret i32 %.2
}